; Function Attrs: mustprogress uwtable
define hidden noundef i32 @_ZNK6Assimp13glTF2Exporter11GetMatColorERK10aiMaterialRA3_fPKcii(ptr nocapture noundef nonnull readnone align 8 dereferenceable(120) %this, ptr noundef nonnull align 8 dereferenceable(16) %mat, ptr nocapture noundef nonnull writeonly align 4 dereferenceable(12) %prop, ptr noundef %propName, i32 noundef %type, i32 noundef %idx) local_unnamed_addr #2 align 2 {
entry:
  %c.i = alloca %class.aiColor4t, align 8
  call void @llvm.lifetime.start.p0(i64 16, ptr nonnull %c.i)
  call void @llvm.memset.p0.i64(ptr noundef nonnull align 8 dereferenceable(16) %c.i, i8 0, i64 16, i1 false)
  %call.i = call i32 @aiGetMaterialColor(ptr noundef nonnull %mat, ptr noundef %propName, i32 noundef %type, i32 noundef %idx, ptr noundef nonnull %c.i)
  %cmp.i = icmp eq i32 %call.i, 0
  br i1 %cmp.i, label %if.then, label %_ZNK10aiMaterial3GetEPKcjjR9aiColor3D.exit

_ZNK10aiMaterial3GetEPKcjjR9aiColor3D.exit:       ; preds = %entry
  call void @llvm.lifetime.end.p0(i64 16, ptr nonnull %c.i)
  br label %if.end

if.then:                                          ; preds = %entry
  %b.i5 = getelementptr inbounds i8, ptr %c.i, i64 8
  %0 = load float, ptr %b.i5, align 8
  %1 = load <2 x float>, ptr %c.i, align 8
  call void @llvm.lifetime.end.p0(i64 16, ptr nonnull %c.i)
  store <2 x float> %1, ptr %prop, align 4
  %arrayidx3 = getelementptr inbounds i8, ptr %prop, i64 8
  store float %0, ptr %arrayidx3, align 4
  br label %if.end

if.end:                                           ; preds = %_ZNK10aiMaterial3GetEPKcjjR9aiColor3D.exit, %if.then
  ret i32 %call.i
}